target datalayout = "e-m:e-p270:32:32-p271:32:32-p272:64:64-i64:64-i128:128-f80:128-n8:16:32:64-S128"
target triple = "x86_64-pc-linux-gnu"

%"struct.duckdb_brotli::BrotliDecoderStateStruct" = type { i32, i32, %"struct.duckdb_brotli::BrotliBitReader", ptr, ptr, ptr, %union.anon, i64, i32, i32, i32, i32, i32, i32, [4 x i32], i32, i32, ptr, ptr, ptr, ptr, ptr, ptr, %"struct.duckdb_brotli::HuffmanTreeGroup", %"struct.duckdb_brotli::HuffmanTreeGroup", %"struct.duckdb_brotli::HuffmanTreeGroup", ptr, ptr, i32, i32, [3 x i64], i64, [3 x i64], [6 x i64], i64, i64, i64, ptr, ptr, i64, i64, i64, [65 x i32], i32, i32, i8, ptr, ptr, ptr, i64, i32, i32, i32, i32, i32, i32, i64, ptr, ptr, ptr, ptr, [8 x i32], %union.anon.0 }
%"struct.duckdb_brotli::BrotliBitReader" = type { i64, i64, ptr, ptr, ptr }
%union.anon = type { i64 }
%"struct.duckdb_brotli::HuffmanTreeGroup" = type { ptr, ptr, i16, i16, i16 }
%union.anon.0 = type { %"struct.duckdb_brotli::BrotliMetablockBodyArena" }
%"struct.duckdb_brotli::BrotliMetablockBodyArena" = type { [544 x i8], [544 x i64] }

; Function Attrs: mustprogress uwtable
define noundef ptr @_ZN13duckdb_brotli23BrotliDecoderTakeOutputEPNS_24BrotliDecoderStateStructEPm(ptr noundef %0, ptr noundef %1) #1 {
  %3 = alloca ptr, align 8
  %4 = alloca ptr, align 8
  %5 = alloca ptr, align 8
  %6 = alloca ptr, align 8
  %7 = alloca i64, align 8
  %8 = alloca i64, align 8
  %9 = alloca i32, align 4
  %10 = alloca i32, align 4
  store ptr %0, ptr %4, align 8, !tbaa !3
  store ptr %1, ptr %5, align 8, !tbaa !50
  call void @llvm.lifetime.start.p0(i64 8, ptr %6) #14
  store ptr null, ptr %6, align 8, !tbaa !32
  call void @llvm.lifetime.start.p0(i64 8, ptr %7) #14
  %11 = load ptr, ptr %5, align 8, !tbaa !50
  %12 = load i64, ptr %11, align 8, !tbaa !31
  %13 = icmp ne i64 %12, 0
  br i1 %13, label %14, label %17

14:                                               ; preds = %2
  %15 = load ptr, ptr %5, align 8, !tbaa !50
  %16 = load i64, ptr %15, align 8, !tbaa !31
  br label %18

17:                                               ; preds = %2
  br label %18

18:                                               ; preds = %17, %14
  %19 = phi i64 [ %16, %14 ], [ 16777216, %17 ]
  store i64 %19, ptr %7, align 8, !tbaa !31
  call void @llvm.lifetime.start.p0(i64 8, ptr %8) #14
  %20 = load i64, ptr %7, align 8, !tbaa !31
  store i64 %20, ptr %8, align 8, !tbaa !31
  call void @llvm.lifetime.start.p0(i64 4, ptr %9) #14
  %21 = load ptr, ptr %4, align 8, !tbaa !3
  %22 = getelementptr inbounds nuw %"struct.duckdb_brotli::BrotliDecoderStateStruct", ptr %21, i32 0, i32 17
  %23 = load ptr, ptr %22, align 8, !tbaa !61
  %24 = icmp eq ptr %23, null
  br i1 %24, label %30, label %25

25:                                               ; preds = %18
  %26 = load ptr, ptr %4, align 8, !tbaa !3
  %27 = getelementptr inbounds nuw %"struct.duckdb_brotli::BrotliDecoderStateStruct", ptr %26, i32 0, i32 15
  %28 = load i32, ptr %27, align 8, !tbaa !59
  %29 = icmp slt i32 %28, 0
  br i1 %29, label %30, label %32

30:                                               ; preds = %25, %18
  %31 = load ptr, ptr %5, align 8, !tbaa !50
  store i64 0, ptr %31, align 8, !tbaa !31
  store ptr null, ptr %3, align 8
  store i32 1, ptr %10, align 4
  br label %57

32:                                               ; preds = %25
  %33 = load ptr, ptr %4, align 8, !tbaa !3
  call void @_ZN13duckdb_brotliL14WrapRingBufferEPNS_24BrotliDecoderStateStructE(ptr noundef %33)
  %34 = load ptr, ptr %4, align 8, !tbaa !3
  %35 = call noundef i32 @_ZN13duckdb_brotliL15WriteRingBufferEPNS_24BrotliDecoderStateStructEPmPPhS2_i(ptr noundef %34, ptr noundef %7, ptr noundef %6, ptr noundef null, i32 noundef 1)
  store i32 %35, ptr %9, align 4, !tbaa !56
  %36 = load i32, ptr %9, align 4, !tbaa !56
  %37 = icmp eq i32 %36, 1
  br i1 %37, label %41, label %38

38:                                               ; preds = %32
  %39 = load i32, ptr %9, align 4, !tbaa !56
  %40 = icmp eq i32 %39, 3
  br i1 %40, label %41, label %46

41:                                               ; preds = %38, %32
  %42 = load i64, ptr %8, align 8, !tbaa !31
  %43 = load i64, ptr %7, align 8, !tbaa !31
  %44 = sub i64 %42, %43
  %45 = load ptr, ptr %5, align 8, !tbaa !50
  store i64 %44, ptr %45, align 8, !tbaa !31
  br label %55

46:                                               ; preds = %38
  %47 = load i32, ptr %9, align 4, !tbaa !56
  %48 = icmp slt i32 %47, 0
  br i1 %48, label %49, label %53

49:                                               ; preds = %46
  %50 = load ptr, ptr %4, align 8, !tbaa !3
  %51 = load i32, ptr %9, align 4, !tbaa !56
  %52 = call noundef i32 @_ZN13duckdb_brotliL13SaveErrorCodeEPNS_24BrotliDecoderStateStructENS_22BrotliDecoderErrorCodeEm(ptr noundef %50, i32 noundef %51, i64 noundef 0)
  br label %53

53:                                               ; preds = %49, %46
  %54 = load ptr, ptr %5, align 8, !tbaa !50
  store i64 0, ptr %54, align 8, !tbaa !31
  store ptr null, ptr %6, align 8, !tbaa !32
  br label %55

55:                                               ; preds = %53, %41
  %56 = load ptr, ptr %6, align 8, !tbaa !32
  store ptr %56, ptr %3, align 8
  store i32 1, ptr %10, align 4
  br label %57

57:                                               ; preds = %55, %30
  call void @llvm.lifetime.end.p0(i64 4, ptr %9) #14
  call void @llvm.lifetime.end.p0(i64 8, ptr %8) #14
  call void @llvm.lifetime.end.p0(i64 8, ptr %7) #14
  call void @llvm.lifetime.end.p0(i64 8, ptr %6) #14
  %58 = load ptr, ptr %3, align 8
  ret ptr %58
}